target datalayout = "e-m:e-p270:32:32-p271:32:32-p272:64:64-i64:64-i128:128-f80:128-n8:16:32:64-S128"
target triple = "x86_64-pc-linux-gnu"

%struct.OSQPVectorf_ = type { ptr, i64 }

; Function Attrs: nounwind uwtable
define void @OSQPVectorf_add_scaled3(ptr noundef %0, double noundef %1, ptr noundef %2, double noundef %3, ptr noundef %4, double noundef %5, ptr noundef %6) #0 {
  %8 = alloca ptr, align 8
  %9 = alloca double, align 8
  %10 = alloca ptr, align 8
  %11 = alloca double, align 8
  %12 = alloca ptr, align 8
  %13 = alloca double, align 8
  %14 = alloca ptr, align 8
  %15 = alloca i64, align 8
  %16 = alloca i64, align 8
  %17 = alloca ptr, align 8
  %18 = alloca ptr, align 8
  %19 = alloca ptr, align 8
  %20 = alloca ptr, align 8
  store ptr %0, ptr %8, align 8
  store double %1, ptr %9, align 8
  store ptr %2, ptr %10, align 8
  store double %3, ptr %11, align 8
  store ptr %4, ptr %12, align 8
  store double %5, ptr %13, align 8
  store ptr %6, ptr %14, align 8
  %21 = load ptr, ptr %8, align 8
  %22 = getelementptr inbounds %struct.OSQPVectorf_, ptr %21, i32 0, i32 1
  %23 = load i64, ptr %22, align 8
  store i64 %23, ptr %16, align 8
  %24 = load ptr, ptr %10, align 8
  %25 = getelementptr inbounds %struct.OSQPVectorf_, ptr %24, i32 0, i32 0
  %26 = load ptr, ptr %25, align 8
  store ptr %26, ptr %17, align 8
  %27 = load ptr, ptr %12, align 8
  %28 = getelementptr inbounds %struct.OSQPVectorf_, ptr %27, i32 0, i32 0
  %29 = load ptr, ptr %28, align 8
  store ptr %29, ptr %18, align 8
  %30 = load ptr, ptr %14, align 8
  %31 = getelementptr inbounds %struct.OSQPVectorf_, ptr %30, i32 0, i32 0
  %32 = load ptr, ptr %31, align 8
  store ptr %32, ptr %19, align 8
  %33 = load ptr, ptr %8, align 8
  %34 = getelementptr inbounds %struct.OSQPVectorf_, ptr %33, i32 0, i32 0
  %35 = load ptr, ptr %34, align 8
  store ptr %35, ptr %20, align 8
  %36 = load ptr, ptr %8, align 8
  %37 = load ptr, ptr %10, align 8
  %38 = icmp eq ptr %36, %37
  br i1 %38, label %39, label %69

39:                                               ; preds = %7
  %40 = load double, ptr %9, align 8
  %41 = fcmp oeq double %40, 1.000000e+00
  br i1 %41, label %42, label %69

42:                                               ; preds = %39
  store i64 0, ptr %15, align 8
  br label %43

43:                                               ; preds = %65, %42
  %44 = load i64, ptr %15, align 8
  %45 = load i64, ptr %16, align 8
  %46 = icmp slt i64 %44, %45
  br i1 %46, label %47, label %68

47:                                               ; preds = %43
  %48 = load double, ptr %11, align 8
  %49 = load ptr, ptr %18, align 8
  %50 = load i64, ptr %15, align 8
  %51 = getelementptr inbounds double, ptr %49, i64 %50
  %52 = load double, ptr %51, align 8
  %53 = load double, ptr %13, align 8
  %54 = load ptr, ptr %19, align 8
  %55 = load i64, ptr %15, align 8
  %56 = getelementptr inbounds double, ptr %54, i64 %55
  %57 = load double, ptr %56, align 8
  %58 = fmul double %53, %57
  %59 = call double @llvm.fmuladd.f64(double %48, double %52, double %58)
  %60 = load ptr, ptr %20, align 8
  %61 = load i64, ptr %15, align 8
  %62 = getelementptr inbounds double, ptr %60, i64 %61
  %63 = load double, ptr %62, align 8
  %64 = fadd double %63, %59
  store double %64, ptr %62, align 8
  br label %65

65:                                               ; preds = %47
  %66 = load i64, ptr %15, align 8
  %67 = add nsw i64 %66, 1
  store i64 %67, ptr %15, align 8
  br label %43, !llvm.loop !26

68:                                               ; preds = %43
  br label %100

69:                                               ; preds = %39, %7
  store i64 0, ptr %15, align 8
  br label %70

70:                                               ; preds = %96, %69
  %71 = load i64, ptr %15, align 8
  %72 = load i64, ptr %16, align 8
  %73 = icmp slt i64 %71, %72
  br i1 %73, label %74, label %99

74:                                               ; preds = %70
  %75 = load double, ptr %9, align 8
  %76 = load ptr, ptr %17, align 8
  %77 = load i64, ptr %15, align 8
  %78 = getelementptr inbounds double, ptr %76, i64 %77
  %79 = load double, ptr %78, align 8
  %80 = load double, ptr %11, align 8
  %81 = load ptr, ptr %18, align 8
  %82 = load i64, ptr %15, align 8
  %83 = getelementptr inbounds double, ptr %81, i64 %82
  %84 = load double, ptr %83, align 8
  %85 = fmul double %80, %84
  %86 = call double @llvm.fmuladd.f64(double %75, double %79, double %85)
  %87 = load double, ptr %13, align 8
  %88 = load ptr, ptr %19, align 8
  %89 = load i64, ptr %15, align 8
  %90 = getelementptr inbounds double, ptr %88, i64 %89
  %91 = load double, ptr %90, align 8
  %92 = call double @llvm.fmuladd.f64(double %87, double %91, double %86)
  %93 = load ptr, ptr %20, align 8
  %94 = load i64, ptr %15, align 8
  %95 = getelementptr inbounds double, ptr %93, i64 %94
  store double %92, ptr %95, align 8
  br label %96

96:                                               ; preds = %74
  %97 = load i64, ptr %15, align 8
  %98 = add nsw i64 %97, 1
  store i64 %98, ptr %15, align 8
  br label %70, !llvm.loop !27

99:                                               ; preds = %70
  br label %100

100:                                              ; preds = %99, %68
  ret void
}