; Function Attrs: nofree norecurse nosync nounwind memory(readwrite, inaccessiblemem: none) uwtable
define void @OSQPVectorf_add_scaled3(ptr noundef readonly %0, double noundef %1, ptr noundef readonly %2, double noundef %3, ptr nocapture noundef readonly %4, double noundef %5, ptr nocapture noundef readonly %6) local_unnamed_addr #7 {
  %8 = getelementptr inbounds i8, ptr %0, i64 8
  %9 = load i64, ptr %8, align 8
  %10 = load ptr, ptr %2, align 8
  %11 = load ptr, ptr %4, align 8
  %12 = load ptr, ptr %6, align 8
  %13 = load ptr, ptr %0, align 8
  %14 = icmp eq ptr %0, %2
  %15 = fcmp oeq double %1, 1.000000e+00
  %or.cond = and i1 %15, %14
  %16 = icmp sgt i64 %9, 0
  br i1 %or.cond, label %.preheader, label %.preheader33

.preheader33:                                     ; preds = %7
  br i1 %16, label %.lr.ph, label %.loopexit

.preheader:                                       ; preds = %7
  br i1 %16, label %.lr.ph37, label %.loopexit

.lr.ph37:                                         ; preds = %.preheader, %.lr.ph37
  %.036 = phi i64 [ %26, %.lr.ph37 ], [ 0, %.preheader ]
  %17 = getelementptr inbounds double, ptr %11, i64 %.036
  %18 = load double, ptr %17, align 8
  %19 = getelementptr inbounds double, ptr %12, i64 %.036
  %20 = load double, ptr %19, align 8
  %21 = fmul double %20, %5
  %22 = tail call double @llvm.fmuladd.f64(double %3, double %18, double %21)
  %23 = getelementptr inbounds double, ptr %13, i64 %.036
  %24 = load double, ptr %23, align 8
  %25 = fadd double %24, %22
  store double %25, ptr %23, align 8
  %26 = add nuw nsw i64 %.036, 1
  %exitcond39.not = icmp eq i64 %26, %9
  br i1 %exitcond39.not, label %.loopexit, label %.lr.ph37, !llvm.loop !26

.lr.ph:                                           ; preds = %.preheader33, %.lr.ph
  %.135 = phi i64 [ %37, %.lr.ph ], [ 0, %.preheader33 ]
  %27 = getelementptr inbounds double, ptr %10, i64 %.135
  %28 = load double, ptr %27, align 8
  %29 = getelementptr inbounds double, ptr %11, i64 %.135
  %30 = load double, ptr %29, align 8
  %31 = fmul double %30, %3
  %32 = tail call double @llvm.fmuladd.f64(double %1, double %28, double %31)
  %33 = getelementptr inbounds double, ptr %12, i64 %.135
  %34 = load double, ptr %33, align 8
  %35 = tail call double @llvm.fmuladd.f64(double %5, double %34, double %32)
  %36 = getelementptr inbounds double, ptr %13, i64 %.135
  store double %35, ptr %36, align 8
  %37 = add nuw nsw i64 %.135, 1
  %exitcond.not = icmp eq i64 %37, %9
  br i1 %exitcond.not, label %.loopexit, label %.lr.ph, !llvm.loop !27

.loopexit:                                        ; preds = %.lr.ph, %.lr.ph37, %.preheader33, %.preheader
  ret void
}